target datalayout = "e-m:e-p270:32:32-p271:32:32-p272:64:64-i64:64-i128:128-f80:128-n8:16:32:64-S128"
target triple = "x86_64-unknown-linux-gnu"

%struct.vlan_header = type { i16, i16 }
%struct.timeval = type { i64, i64 }

@trace_events_enabled_count = external global i32, align 4
@message_with_timestamp = external global i8, align 1
@qemu_loglevel = external global i32, align 4
@_TRACE_E1000X_RX_FLT_VLAN_MISMATCH_DSTATE = external global i16, align 2
@.str.4 = private unnamed_addr constant [61 x i8] c"%d@%zu.%06zu:e1000x_rx_flt_vlan_mismatch VID mismatch: 0x%X\0A\00", align 1
@.str.5 = private unnamed_addr constant [48 x i8] c"e1000x_rx_flt_vlan_mismatch VID mismatch: 0x%X\0A\00", align 1
@_TRACE_E1000X_RX_FLT_VLAN_MATCH_DSTATE = external global i16, align 2
@.str.6 = private unnamed_addr constant [55 x i8] c"%d@%zu.%06zu:e1000x_rx_flt_vlan_match VID match: 0x%X\0A\00", align 1
@.str.7 = private unnamed_addr constant [42 x i8] c"e1000x_rx_flt_vlan_match VID match: 0x%X\0A\00", align 1

; Function Attrs: nounwind sspstrong uwtable
define internal zeroext i1 @qemu_loglevel_mask(i32 noundef %mask) #0 {
entry:
  %mask.addr = alloca i32, align 4
  store i32 %mask, ptr %mask.addr, align 4
  %0 = load i32, ptr @qemu_loglevel, align 4
  %1 = load i32, ptr %mask.addr, align 4
  %and = and i32 %0, %1
  %cmp = icmp ne i32 %and, 0
  ret i1 %cmp
}

; Function Attrs: nounwind sspstrong uwtable
define internal void @_nocheck__trace_e1000x_rx_flt_vlan_match(i16 noundef zeroext %vid) #0 {
entry:
  %vid.addr = alloca i16, align 2
  %_now = alloca %struct.timeval, align 8
  store i16 %vid, ptr %vid.addr, align 2
  %0 = load i32, ptr @trace_events_enabled_count, align 4
  %tobool = icmp ne i32 %0, 0
  %lnot = xor i1 %tobool, true
  %lnot1 = xor i1 %lnot, true
  %lnot.ext = zext i1 %lnot1 to i32
  %conv = sext i32 %lnot.ext to i64
  %tobool2 = icmp ne i64 %conv, 0
  br i1 %tobool2, label %land.lhs.true, label %if.end13

land.lhs.true:                                    ; preds = %entry
  %1 = load i16, ptr @_TRACE_E1000X_RX_FLT_VLAN_MATCH_DSTATE, align 2
  %conv3 = zext i16 %1 to i32
  %tobool4 = icmp ne i32 %conv3, 0
  br i1 %tobool4, label %land.lhs.true5, label %if.end13

land.lhs.true5:                                   ; preds = %land.lhs.true
  %call = call zeroext i1 @qemu_loglevel_mask(i32 noundef 32768)
  br i1 %call, label %if.then, label %if.end13

if.then:                                          ; preds = %land.lhs.true5
  %2 = load i8, ptr @message_with_timestamp, align 1
  %tobool7 = trunc i8 %2 to i1
  br i1 %tobool7, label %if.then8, label %if.else

if.then8:                                         ; preds = %if.then
  %call9 = call i32 @gettimeofday(ptr noundef %_now, ptr noundef null) #7
  %call10 = call i32 @qemu_get_thread_id()
  %tv_sec = getelementptr inbounds %struct.timeval, ptr %_now, i32 0, i32 0
  %3 = load i64, ptr %tv_sec, align 8
  %tv_usec = getelementptr inbounds %struct.timeval, ptr %_now, i32 0, i32 1
  %4 = load i64, ptr %tv_usec, align 8
  %5 = load i16, ptr %vid.addr, align 2
  %conv11 = zext i16 %5 to i32
  call void (ptr, ...) @qemu_log(ptr noundef @.str.6, i32 noundef %call10, i64 noundef %3, i64 noundef %4, i32 noundef %conv11)
  br label %if.end

if.else:                                          ; preds = %if.then
  %6 = load i16, ptr %vid.addr, align 2
  %conv12 = zext i16 %6 to i32
  call void (ptr, ...) @qemu_log(ptr noundef @.str.7, i32 noundef %conv12)
  br label %if.end

if.end:                                           ; preds = %if.else, %if.then8
  br label %if.end13

if.end13:                                         ; preds = %if.end, %land.lhs.true5, %land.lhs.true, %entry
  ret void
}

; Function Attrs: nounwind sspstrong uwtable
define internal void @_nocheck__trace_e1000x_rx_flt_vlan_mismatch(i16 noundef zeroext %vid) #0 {
entry:
  %vid.addr = alloca i16, align 2
  %_now = alloca %struct.timeval, align 8
  store i16 %vid, ptr %vid.addr, align 2
  %0 = load i32, ptr @trace_events_enabled_count, align 4
  %tobool = icmp ne i32 %0, 0
  %lnot = xor i1 %tobool, true
  %lnot1 = xor i1 %lnot, true
  %lnot.ext = zext i1 %lnot1 to i32
  %conv = sext i32 %lnot.ext to i64
  %tobool2 = icmp ne i64 %conv, 0
  br i1 %tobool2, label %land.lhs.true, label %if.end13

land.lhs.true:                                    ; preds = %entry
  %1 = load i16, ptr @_TRACE_E1000X_RX_FLT_VLAN_MISMATCH_DSTATE, align 2
  %conv3 = zext i16 %1 to i32
  %tobool4 = icmp ne i32 %conv3, 0
  br i1 %tobool4, label %land.lhs.true5, label %if.end13

land.lhs.true5:                                   ; preds = %land.lhs.true
  %call = call zeroext i1 @qemu_loglevel_mask(i32 noundef 32768)
  br i1 %call, label %if.then, label %if.end13

if.then:                                          ; preds = %land.lhs.true5
  %2 = load i8, ptr @message_with_timestamp, align 1
  %tobool7 = trunc i8 %2 to i1
  br i1 %tobool7, label %if.then8, label %if.else

if.then8:                                         ; preds = %if.then
  %call9 = call i32 @gettimeofday(ptr noundef %_now, ptr noundef null) #7
  %call10 = call i32 @qemu_get_thread_id()
  %tv_sec = getelementptr inbounds %struct.timeval, ptr %_now, i32 0, i32 0
  %3 = load i64, ptr %tv_sec, align 8
  %tv_usec = getelementptr inbounds %struct.timeval, ptr %_now, i32 0, i32 1
  %4 = load i64, ptr %tv_usec, align 8
  %5 = load i16, ptr %vid.addr, align 2
  %conv11 = zext i16 %5 to i32
  call void (ptr, ...) @qemu_log(ptr noundef @.str.4, i32 noundef %call10, i64 noundef %3, i64 noundef %4, i32 noundef %conv11)
  br label %if.end

if.else:                                          ; preds = %if.then
  %6 = load i16, ptr %vid.addr, align 2
  %conv12 = zext i16 %6 to i32
  call void (ptr, ...) @qemu_log(ptr noundef @.str.5, i32 noundef %conv12)
  br label %if.end

if.end:                                           ; preds = %if.else, %if.then8
  br label %if.end13

if.end13:                                         ; preds = %if.end, %land.lhs.true5, %land.lhs.true, %entry
  ret void
}

; Function Attrs: nounwind sspstrong uwtable
define internal i32 @ldl_he_p(ptr noundef %ptr) #0 {
entry:
  %ptr.addr = alloca ptr, align 8
  %r = alloca i32, align 4
  store ptr %ptr, ptr %ptr.addr, align 8
  %0 = load ptr, ptr %ptr.addr, align 8
  call void @llvm.memcpy.p0.p0.i64(ptr align 4 %r, ptr align 1 %0, i64 4, i1 false)
  %1 = load i32, ptr %r, align 4
  ret i32 %1
}

; Function Attrs: nounwind sspstrong uwtable
define internal i32 @lduw_he_p(ptr noundef %ptr) #0 {
entry:
  %ptr.addr = alloca ptr, align 8
  %r = alloca i16, align 2
  store ptr %ptr, ptr %ptr.addr, align 8
  %0 = load ptr, ptr %ptr.addr, align 8
  call void @llvm.memcpy.p0.p0.i64(ptr align 2 %r, ptr align 1 %0, i64 2, i1 false)
  %1 = load i16, ptr %r, align 2
  %conv = zext i16 %1 to i32
  ret i32 %conv
}

; Function Attrs: nounwind sspstrong uwtable
define internal void @trace_e1000x_rx_flt_vlan_match(i16 noundef zeroext %vid) #0 {
entry:
  %vid.addr = alloca i16, align 2
  store i16 %vid, ptr %vid.addr, align 2
  %0 = load i16, ptr %vid.addr, align 2
  call void @_nocheck__trace_e1000x_rx_flt_vlan_match(i16 noundef zeroext %0)
  ret void
}

; Function Attrs: nounwind sspstrong uwtable
define internal void @trace_e1000x_rx_flt_vlan_mismatch(i16 noundef zeroext %vid) #0 {
entry:
  %vid.addr = alloca i16, align 2
  store i16 %vid, ptr %vid.addr, align 2
  %0 = load i16, ptr %vid.addr, align 2
  call void @_nocheck__trace_e1000x_rx_flt_vlan_mismatch(i16 noundef zeroext %0)
  ret void
}

; Function Attrs: nounwind sspstrong uwtable
define internal i32 @ldl_le_p(ptr noundef %ptr) #0 {
entry:
  %ptr.addr = alloca ptr, align 8
  store ptr %ptr, ptr %ptr.addr, align 8
  %0 = load ptr, ptr %ptr.addr, align 8
  %call = call i32 @ldl_he_p(ptr noundef %0)
  ret i32 %call
}

; Function Attrs: nounwind sspstrong uwtable
define internal i32 @lduw_be_p(ptr noundef %ptr) #0 {
entry:
  %ptr.addr = alloca ptr, align 8
  store ptr %ptr, ptr %ptr.addr, align 8
  %0 = load ptr, ptr %ptr.addr, align 8
  %call = call i32 @lduw_he_p(ptr noundef %0)
  %conv = trunc i32 %call to i16
  %1 = call i16 @llvm.bswap.i16(i16 %conv)
  %conv1 = zext i16 %1 to i32
  ret i32 %conv1
}

; Function Attrs: nounwind sspstrong uwtable
define internal i32 @e1000x_vlan_rx_filter_enabled(ptr noundef %mac) #0 {
entry:
  %mac.addr = alloca ptr, align 8
  store ptr %mac, ptr %mac.addr, align 8
  %0 = load ptr, ptr %mac.addr, align 8
  %arrayidx = getelementptr i32, ptr %0, i64 64
  %1 = load i32, ptr %arrayidx, align 4
  %and = and i32 %1, 262144
  %cmp = icmp ne i32 %and, 0
  %conv = zext i1 %cmp to i32
  ret i32 %conv
}

; Function Attrs: nounwind sspstrong uwtable
define dso_local zeroext i1 @e1000x_rx_vlan_filter(ptr noundef %mac, ptr noundef %vhdr) #0 {
entry:
  %retval = alloca i1, align 1
  %mac.addr = alloca ptr, align 8
  %vhdr.addr = alloca ptr, align 8
  %vid = alloca i16, align 2
  %vfta = alloca i32, align 4
  store ptr %mac, ptr %mac.addr, align 8
  store ptr %vhdr, ptr %vhdr.addr, align 8
  %0 = load ptr, ptr %mac.addr, align 8
  %call = call i32 @e1000x_vlan_rx_filter_enabled(ptr noundef %0)
  %tobool = icmp ne i32 %call, 0
  br i1 %tobool, label %if.then, label %if.end10

if.then:                                          ; preds = %entry
  %1 = load ptr, ptr %vhdr.addr, align 8
  %h_tci = getelementptr inbounds %struct.vlan_header, ptr %1, i32 0, i32 0
  %call1 = call i32 @lduw_be_p(ptr noundef %h_tci)
  %conv = trunc i32 %call1 to i16
  store i16 %conv, ptr %vid, align 2
  %2 = load ptr, ptr %mac.addr, align 8
  %add.ptr = getelementptr i32, ptr %2, i64 5504
  %3 = load i16, ptr %vid, align 2
  %conv2 = zext i16 %3 to i32
  %shr = ashr i32 %conv2, 5
  %and = and i32 %shr, 127
  %idx.ext = sext i32 %and to i64
  %add.ptr3 = getelementptr i32, ptr %add.ptr, i64 %idx.ext
  %call4 = call i32 @ldl_le_p(ptr noundef %add.ptr3)
  store i32 %call4, ptr %vfta, align 4
  %4 = load i32, ptr %vfta, align 4
  %5 = load i16, ptr %vid, align 2
  %conv5 = zext i16 %5 to i32
  %and6 = and i32 %conv5, 31
  %shl = shl i32 1, %and6
  %and7 = and i32 %4, %shl
  %cmp = icmp eq i32 %and7, 0
  br i1 %cmp, label %if.then9, label %if.end

if.then9:                                         ; preds = %if.then
  %6 = load i16, ptr %vid, align 2
  call void @trace_e1000x_rx_flt_vlan_mismatch(i16 noundef zeroext %6)
  store i1 false, ptr %retval, align 1
  br label %return

if.end:                                           ; preds = %if.then
  %7 = load i16, ptr %vid, align 2
  call void @trace_e1000x_rx_flt_vlan_match(i16 noundef zeroext %7)
  br label %if.end10

if.end10:                                         ; preds = %if.end, %entry
  store i1 true, ptr %retval, align 1
  br label %return

return:                                           ; preds = %if.end10, %if.then9
  %8 = load i1, ptr %retval, align 1
  ret i1 %8
}