; Function Attrs: nounwind sspstrong uwtable
define dso_local noundef zeroext i1 @e1000x_rx_vlan_filter(ptr noundef readonly captures(none) %mac, ptr noundef readonly captures(none) %vhdr) local_unnamed_addr #0 {
entry:
  %_now.i.i5 = alloca %struct.timeval, align 8
  %_now.i.i = alloca %struct.timeval, align 8
  %0 = getelementptr i8, ptr %mac, i64 256
  %mac.val = load i32, ptr %0, align 4
  %1 = and i32 %mac.val, 262144
  %tobool.not = icmp eq i32 %1, 0
  br i1 %tobool.not, label %return, label %if.then

if.then:                                          ; preds = %entry
  %vhdr.val = load i16, ptr %vhdr, align 1
  %2 = tail call i16 @llvm.bswap.i16(i16 %vhdr.val)
  %conv1.i = zext i16 %2 to i32
  %add.ptr = getelementptr i8, ptr %mac, i64 22016
  %shr = lshr i32 %conv1.i, 5
  %and = and i32 %shr, 127
  %idx.ext = zext nneg i32 %and to i64
  %add.ptr3 = getelementptr i32, ptr %add.ptr, i64 %idx.ext
  %add.ptr3.val = load i32, ptr %add.ptr3, align 1
  %and6 = and i32 %conv1.i, 31
  %shl = shl nuw i32 1, %and6
  %and7 = and i32 %shl, %add.ptr3.val
  %cmp = icmp eq i32 %and7, 0
  br i1 %cmp, label %if.then9, label %if.end

if.then9:                                         ; preds = %if.then
  call void @llvm.lifetime.start.p0(i64 16, ptr nonnull %_now.i.i)
  %3 = load i32, ptr @trace_events_enabled_count, align 4
  %tobool.i.i = icmp ne i32 %3, 0
  %4 = load i16, ptr @_TRACE_E1000X_RX_FLT_VLAN_MISMATCH_DSTATE, align 2
  %tobool4.i.i = icmp ne i16 %4, 0
  %or.cond.i.i = select i1 %tobool.i.i, i1 %tobool4.i.i, i1 false
  br i1 %or.cond.i.i, label %land.lhs.true5.i.i, label %trace_e1000x_rx_flt_vlan_mismatch.exit

land.lhs.true5.i.i:                               ; preds = %if.then9
  %5 = load i32, ptr @qemu_loglevel, align 4
  %and.i.i.i = and i32 %5, 32768
  %cmp.i.not.i.i = icmp eq i32 %and.i.i.i, 0
  br i1 %cmp.i.not.i.i, label %trace_e1000x_rx_flt_vlan_mismatch.exit, label %if.then.i.i

if.then.i.i:                                      ; preds = %land.lhs.true5.i.i
  %6 = load i8, ptr @message_with_timestamp, align 1
  %tobool7.i.i = trunc i8 %6 to i1
  br i1 %tobool7.i.i, label %if.then8.i.i, label %if.else.i.i

if.then8.i.i:                                     ; preds = %if.then.i.i
  %call9.i.i = call i32 @gettimeofday(ptr noundef nonnull %_now.i.i, ptr noundef null) #11
  %call10.i.i = tail call i32 @qemu_get_thread_id() #11
  %7 = load i64, ptr %_now.i.i, align 8
  %tv_usec.i.i = getelementptr inbounds nuw i8, ptr %_now.i.i, i64 8
  %8 = load i64, ptr %tv_usec.i.i, align 8
  tail call void (ptr, ...) @qemu_log(ptr noundef nonnull @.str.4, i32 noundef %call10.i.i, i64 noundef %7, i64 noundef %8, i32 noundef %conv1.i) #11
  br label %trace_e1000x_rx_flt_vlan_mismatch.exit

if.else.i.i:                                      ; preds = %if.then.i.i
  tail call void (ptr, ...) @qemu_log(ptr noundef nonnull @.str.5, i32 noundef %conv1.i) #11
  br label %trace_e1000x_rx_flt_vlan_mismatch.exit

trace_e1000x_rx_flt_vlan_mismatch.exit:           ; preds = %if.then9, %land.lhs.true5.i.i, %if.then8.i.i, %if.else.i.i
  call void @llvm.lifetime.end.p0(i64 16, ptr nonnull %_now.i.i)
  br label %return

if.end:                                           ; preds = %if.then
  call void @llvm.lifetime.start.p0(i64 16, ptr nonnull %_now.i.i5)
  %9 = load i32, ptr @trace_events_enabled_count, align 4
  %tobool.i.i6 = icmp ne i32 %9, 0
  %10 = load i16, ptr @_TRACE_E1000X_RX_FLT_VLAN_MATCH_DSTATE, align 2
  %tobool4.i.i7 = icmp ne i16 %10, 0
  %or.cond.i.i8 = select i1 %tobool.i.i6, i1 %tobool4.i.i7, i1 false
  br i1 %or.cond.i.i8, label %land.lhs.true5.i.i9, label %trace_e1000x_rx_flt_vlan_match.exit

land.lhs.true5.i.i9:                              ; preds = %if.end
  %11 = load i32, ptr @qemu_loglevel, align 4
  %and.i.i.i10 = and i32 %11, 32768
  %cmp.i.not.i.i11 = icmp eq i32 %and.i.i.i10, 0
  br i1 %cmp.i.not.i.i11, label %trace_e1000x_rx_flt_vlan_match.exit, label %if.then.i.i12

if.then.i.i12:                                    ; preds = %land.lhs.true5.i.i9
  %12 = load i8, ptr @message_with_timestamp, align 1
  %tobool7.i.i13 = trunc i8 %12 to i1
  br i1 %tobool7.i.i13, label %if.then8.i.i16, label %if.else.i.i14

if.then8.i.i16:                                   ; preds = %if.then.i.i12
  %call9.i.i17 = call i32 @gettimeofday(ptr noundef nonnull %_now.i.i5, ptr noundef null) #11
  %call10.i.i18 = tail call i32 @qemu_get_thread_id() #11
  %13 = load i64, ptr %_now.i.i5, align 8
  %tv_usec.i.i19 = getelementptr inbounds nuw i8, ptr %_now.i.i5, i64 8
  %14 = load i64, ptr %tv_usec.i.i19, align 8
  tail call void (ptr, ...) @qemu_log(ptr noundef nonnull @.str.6, i32 noundef %call10.i.i18, i64 noundef %13, i64 noundef %14, i32 noundef %conv1.i) #11
  br label %trace_e1000x_rx_flt_vlan_match.exit

if.else.i.i14:                                    ; preds = %if.then.i.i12
  tail call void (ptr, ...) @qemu_log(ptr noundef nonnull @.str.7, i32 noundef %conv1.i) #11
  br label %trace_e1000x_rx_flt_vlan_match.exit

trace_e1000x_rx_flt_vlan_match.exit:              ; preds = %if.end, %land.lhs.true5.i.i9, %if.then8.i.i16, %if.else.i.i14
  call void @llvm.lifetime.end.p0(i64 16, ptr nonnull %_now.i.i5)
  br label %return

return:                                           ; preds = %entry, %trace_e1000x_rx_flt_vlan_match.exit, %trace_e1000x_rx_flt_vlan_mismatch.exit
  %retval.0 = phi i1 [ false, %trace_e1000x_rx_flt_vlan_mismatch.exit ], [ true, %trace_e1000x_rx_flt_vlan_match.exit ], [ true, %entry ]
  ret i1 %retval.0
}